Certificate:
    Data:
        Version: 3 (0x2)
        Serial Number: 4242 (0x1092)
    Signature Algorithm: sha256WithRSAEncryption
        Issuer: C=US, ST=Washington, L=Seattle, O=getaCert - www.getacert.com
        Validity
            Not Before: Dec  2 02:33:15 2017 GMT
            Not After : Jan 31 02:33:15 2018 GMT
        Subject: C=BR, ST=PE, L=Garanhuns, O=UFRPE, OU=UAG, CN=StopDONHA/emailAddress=paulomatew@gmail.com
        Subject Public Key Info:
            Public Key Algorithm: rsaEncryption
                Public-Key: (2048 bit)
                Modulus:
                    00:d0:86:30:6f:87:d1:e8:f7:0d:0f:f4:eb:d7:3d:
                    79:9c:7e:0e:01:14:35:cc:82:1e:05:a3:59:de:a1:
                    2e:e7:7a:50:b7:4c:93:e0:21:80:ec:9f:e7:c3:0e:
                    31:42:25:0d:70:ec:22:32:2e:0a:e5:5a:25:48:77:
                    80:d3:f1:9a:e6:ee:05:67:e5:87:e3:bc:68:c3:4d:
                    bd:c1:73:85:94:b2:b2:a1:bf:cc:09:c1:ff:e2:16:
                    6d:fd:d8:9a:87:8e:34:f3:8a:ad:75:6c:1e:bf:da:
                    4a:2a:06:27:7e:f8:65:f3:79:f5:c5:0f:9a:f6:5b:
                    a2:b9:bc:c2:32:59:8a:3c:9b:44:e7:3c:3a:72:b3:
                    b0:b7:f7:36:af:25:b6:78:c4:ca:5a:8c:e1:b9:d3:
                    08:af:b2:63:11:14:75:28:11:ed:b4:05:df:c9:63:
                    9c:e6:a4:41:83:77:de:90:84:92:58:3d:5f:60:d3:
                    01:01:de:ed:c2:29:0a:9b:a7:96:57:ec:e3:00:c3:
                    ec:a7:0e:12:14:00:d6:81:8e:02:22:b5:88:38:f2:
                    1b:82:9c:d5:c5:f2:89:10:80:b1:00:d6:00:bf:68:
                    b3:9d:58:f4:40:36:11:aa:10:cf:5c:00:86:84:e3:
                    c0:f2:e9:b4:91:b0:c1:18:23:e9:3a:2c:f6:42:67:
                    1b:9f
                Exponent: 65537 (0x10001)
        X509v3 extensions:
            X509v3 Basic Constraints: 
                CA:FALSE
            Netscape Cert Type: 
                SSL Client, SSL Server, S/MIME, Object Signing
            X509v3 Key Usage: 
                Key Encipherment
    Signature Algorithm: sha256WithRSAEncryption
         6e:66:7b:7f:b4:46:eb:ef:09:04:b9:71:b1:6f:c3:75:a2:2a:
         93:04:da:c6:64:dd:30:f6:2b:fb:2a:61:25:da:86:fe:35:3b:
         71:c3:71:15:58:4f:4e:70:89:1f:27:3b:89:48:82:f4:fa:9f:
         5a:cd:c3:98:49:32:ad:8d:5c:e1:90:a1:a9:83:e1:73:5c:66:
         05:94:93:16:69:b1:f3:6e:17:80:80:ba:32:e2:ee:48:87:7d:
         28:dc:28:39:8f:59:e5:eb:cd:d5:cb:2b:29:8d:d7:bc:56:66:
         b8:5b:af:0f:27:46:ec:05:43:0a:6b:f2:94:ea:91:6f:c4:43:
         46:0f:69:29:48:e4:a9:f3:e8:a7:fd:67:f4:0f:70:db:b3:b1:
         3a:cc:ae:e7:ad:88:e6:bc:31:ae:41:ba:ad:f5:fa:19:95:09:
         1a:e2:0b:e6:23:1d:17:77:f7:5b:36:a9:db:06:2d:03:40:ac:
         a2:f0:df:b9:9e:e1:eb:65:47:d0:16:14:eb:e2:9d:53:fc:88:
         4f:2b:25:45:92:0b:2c:33:ab:2c:f9:fe:4b:a3:38:05:8b:d3:
         85:02:68:e9:d3:81:f0:df:80:a2:f6:95:2b:36:3b:67:5c:5b:
         40:5a:0e:6f:a5:d7:ee:07:56:b1:90:73:37:d4:fe:11:bb:25:
         8a:af:37:a5
-----BEGIN CERTIFICATE-----
MIIDiTCCAnGgAwIBAgICEJIwDQYJKoZIhvcNAQELBQAwWjELMAkGA1UEBhMCVVMx
EzARBgNVBAgTCldhc2hpbmd0b24xEDAOBgNVBAcTB1NlYXR0bGUxJDAiBgNVBAoT
G2dldGFDZXJ0IC0gd3d3LmdldGFjZXJ0LmNvbTAeFw0xNzEyMDIwMjMzMTVaFw0x
ODAxMzEwMjMzMTVaMIGFMQswCQYDVQQGEwJCUjELMAkGA1UECBMCUEUxEjAQBgNV
BAcTCUdhcmFuaHVuczEOMAwGA1UEChMFVUZSUEUxDDAKBgNVBAsTA1VBRzESMBAG
A1UEAxMJU3RvcERPTkhBMSMwIQYJKoZIhvcNAQkBFhRwYXVsb21hdGV3QGdtYWls
LmNvbTCCASIwDQYJKoZIhvcNAQEBBQADggEPADCCAQoCggEBANCGMG+H0ej3DQ/0
69c9eZx+DgEUNcyCHgWjWd6hLud6ULdMk+AhgOyf58MOMUIlDXDsIjIuCuVaJUh3
gNPxmubuBWflh+O8aMNNvcFzhZSysqG/zAnB/+IWbf3YmoeONPOKrXVsHr/aSioG
J374ZfN59cUPmvZborm8wjJZijybROc8OnKzsLf3Nq8ltnjEylqM4bnTCK+yYxEU
dSgR7bQF38ljnOakQYN33pCEklg9X2DTAQHe7cIpCpunllfs4wDD7KcOEhQA1oGO
AiK1iDjyG4Kc1cXyiRCAsQDWAL9os51Y9EA2EaoQz1wAhoTjwPLptJGwwRgj6Tos
9kJnG58CAwEAAaMtMCswCQYDVR0TBAIwADARBglghkgBhvhCAQEEBAMCBPAwCwYD
VR0PBAQDAgUgMA0GCSqGSIb3DQEBCwUAA4IBAQBuZnt/tEbr7wkEuXGxb8N1oiqT
BNrGZN0w9iv7KmEl2ob+NTtxw3EVWE9OcIkfJzuJSIL0+p9azcOYSTKtjVzhkKGp
g+FzXGYFlJMWabHzbheAgLoy4u5Ih30o3Cg5j1nl683Vyyspjde8Vma4W68PJ0bs
BUMKa/KU6pFvxENGD2kpSOSp8+in/Wf0D3Dbs7E6zK7nrYjmvDGuQbqt9foZlQka
4gvmIx0Xd/dbNqnbBi0DQKyi8N+5nuHrZUfQFhTr4p1T/IhPKyVFkgssM6ss+f5L
ozgFi9OFAmjp04Hw34Ci9pUrNjtnXFtAWg5vpdfuB1axkHM31P4RuyWKrzel
-----END CERTIFICATE-----
